target datalayout = "e-m:e-p270:32:32-p271:32:32-p272:64:64-i64:64-i128:128-f80:128-n8:16:32:64-S128"
target triple = "x86_64-pc-linux-gnu"

@hf_sigcomp_getting_value = internal global i32 0, align 4
@.str.539 = private unnamed_addr constant [54 x i8] c"               Getting value: %u (0x%x) From Addr: %u\00", align 1

; Function Attrs: null_pointer_is_valid sspstrong uwtable
define internal i32 @decomp_dispatch_get_bits(ptr noundef %0, ptr noundef %1, i8 noundef zeroext %2, ptr noundef %3, ptr noundef %4, ptr noundef %5, ptr noundef %6, ptr noundef %7, i16 noundef zeroext %8, ptr noundef %9, i32 noundef %10, i1 noundef zeroext %11) #0 {
  %13 = alloca i32, align 4
  %14 = alloca ptr, align 8
  %15 = alloca ptr, align 8
  %16 = alloca i8, align 1
  %17 = alloca ptr, align 8
  %18 = alloca ptr, align 8
  %19 = alloca ptr, align 8
  %20 = alloca ptr, align 8
  %21 = alloca ptr, align 8
  %22 = alloca i16, align 2
  %23 = alloca ptr, align 8
  %24 = alloca i32, align 4
  %25 = alloca i8, align 1
  %26 = alloca i16, align 2
  %27 = alloca i16, align 2
  %28 = alloca i16, align 2
  %29 = alloca i8, align 1
  %30 = alloca i32, align 4
  %31 = alloca i32, align 4
  %32 = alloca i32, align 4
  %33 = alloca i32, align 4
  %34 = alloca i32, align 4
  %35 = alloca i16, align 2
  %36 = alloca i16, align 2
  store ptr %0, ptr %14, align 8
  store ptr %1, ptr %15, align 8
  store i8 %2, ptr %16, align 1
  store ptr %3, ptr %17, align 8
  store ptr %4, ptr %18, align 8
  store ptr %5, ptr %19, align 8
  store ptr %6, ptr %20, align 8
  store ptr %7, ptr %21, align 8
  store i16 %8, ptr %22, align 2
  store ptr %9, ptr %23, align 8
  store i32 %10, ptr %24, align 4
  %37 = zext i1 %11 to i8
  store i8 %37, ptr %25, align 1
  call void @llvm.lifetime.start.p0(i64 2, ptr %26) #10
  call void @llvm.lifetime.start.p0(i64 2, ptr %27) #10
  %38 = load i16, ptr %22, align 2
  store i16 %38, ptr %27, align 2
  call void @llvm.lifetime.start.p0(i64 2, ptr %28) #10
  store i16 0, ptr %28, align 2
  call void @llvm.lifetime.start.p0(i64 1, ptr %29) #10
  call void @llvm.lifetime.start.p0(i64 4, ptr %30) #10
  %39 = load i32, ptr %24, align 4
  %40 = load ptr, ptr %21, align 8
  %41 = load i32, ptr %40, align 4
  %42 = sub i32 %39, %41
  store i32 %42, ptr %30, align 4
  call void @llvm.lifetime.start.p0(i64 4, ptr %31) #10
  call void @llvm.lifetime.start.p0(i64 4, ptr %32) #10
  %43 = load ptr, ptr %18, align 8
  %44 = load i16, ptr %43, align 2
  %45 = zext i16 %44 to i32
  %46 = and i32 %45, 1
  store i32 %46, ptr %32, align 4
  call void @llvm.lifetime.start.p0(i64 4, ptr %33) #10
  store i32 0, ptr %33, align 4
  %47 = load ptr, ptr %17, align 8
  %48 = getelementptr i8, ptr %47, i64 68
  %49 = load i8, ptr %48, align 1
  %50 = zext i8 %49 to i32
  %51 = shl i32 %50, 8
  %52 = trunc i32 %51 to i16
  store i16 %52, ptr %26, align 2
  %53 = load i16, ptr %26, align 2
  %54 = zext i16 %53 to i32
  %55 = load ptr, ptr %17, align 8
  %56 = getelementptr i8, ptr %55, i64 69
  %57 = load i8, ptr %56, align 1
  %58 = zext i8 %57 to i32
  %59 = or i32 %54, %58
  %60 = trunc i32 %59 to i16
  store i16 %60, ptr %26, align 2
  %61 = load ptr, ptr %23, align 8
  store i16 0, ptr %61, align 2
  %62 = load i16, ptr %26, align 2
  %63 = zext i16 %62 to i32
  %64 = and i32 %63, 1
  %65 = icmp ne i32 %64, 0
  %66 = zext i1 %65 to i32
  store i32 %66, ptr %31, align 4
  %67 = load i32, ptr %32, align 4
  %68 = load i32, ptr %31, align 4
  %69 = icmp ne i32 %67, %68
  br i1 %69, label %70, label %74

70:                                               ; preds = %12
  %71 = load ptr, ptr %19, align 8
  store i16 0, ptr %71, align 2
  %72 = load i16, ptr %26, align 2
  %73 = load ptr, ptr %18, align 8
  store i16 %72, ptr %73, align 2
  br label %74

74:                                               ; preds = %70, %12
  %75 = load ptr, ptr %19, align 8
  %76 = load i16, ptr %75, align 2
  %77 = zext i16 %76 to i32
  %78 = load i32, ptr %30, align 4
  %79 = mul i32 %78, 8
  %80 = add i32 %77, %79
  %81 = load i16, ptr %22, align 2
  %82 = zext i16 %81 to i32
  %83 = icmp slt i32 %80, %82
  br i1 %83, label %84, label %86

84:                                               ; preds = %74
  %85 = load ptr, ptr %23, align 8
  store i16 11, ptr %85, align 2
  store i32 64429, ptr %13, align 4
  store i32 1, ptr %34, align 4
  br label %222

86:                                               ; preds = %74
  br label %87

87:                                               ; preds = %149, %86
  %88 = load i16, ptr %27, align 2
  %89 = zext i16 %88 to i32
  %90 = icmp sgt i32 %89, 0
  br i1 %90, label %91, label %184

91:                                               ; preds = %87
  %92 = load ptr, ptr %19, align 8
  %93 = load i16, ptr %92, align 2
  %94 = zext i16 %93 to i32
  %95 = icmp eq i32 %94, 0
  br i1 %95, label %96, label %135

96:                                               ; preds = %91
  %97 = load ptr, ptr %14, align 8
  %98 = load ptr, ptr %21, align 8
  %99 = load i32, ptr %98, align 4
  %100 = call zeroext i8 @tvb_get_uint8(ptr noundef %97, i32 noundef %99)
  store i8 %100, ptr %29, align 1
  %101 = load i8, ptr %25, align 1, !range !8, !noundef !9
  %102 = trunc i8 %101 to i1
  br i1 %102, label %103, label %118

103:                                              ; preds = %96
  %104 = load ptr, ptr %15, align 8
  %105 = load i32, ptr @hf_sigcomp_getting_value, align 4
  %106 = load ptr, ptr %14, align 8
  %107 = load ptr, ptr %21, align 8
  %108 = load i32, ptr %107, align 4
  %109 = load i8, ptr %29, align 1
  %110 = zext i8 %109 to i32
  %111 = load i8, ptr %29, align 1
  %112 = zext i8 %111 to i32
  %113 = load i8, ptr %29, align 1
  %114 = zext i8 %113 to i32
  %115 = load ptr, ptr %21, align 8
  %116 = load i32, ptr %115, align 4
  %117 = call ptr (ptr, i32, ptr, i32, i32, i32, ptr, ...) @proto_tree_add_uint_format(ptr noundef %104, i32 noundef %105, ptr noundef %106, i32 noundef %108, i32 noundef 1, i32 noundef %110, ptr noundef @.str.539, i32 noundef %112, i32 noundef %114, i32 noundef %116)
  br label %118

118:                                              ; preds = %103, %96
  %119 = load ptr, ptr %21, align 8
  %120 = load i32, ptr %119, align 4
  %121 = add i32 %120, 1
  %122 = load ptr, ptr %21, align 8
  store i32 %121, ptr %122, align 4
  %123 = load i32, ptr %31, align 4
  %124 = icmp ne i32 %123, 0
  br i1 %124, label %125, label %130

125:                                              ; preds = %118
  %126 = load i8, ptr %29, align 1
  %127 = zext i8 %126 to i64
  %128 = getelementptr [256 x i8], ptr @reverse, i64 0, i64 %127
  %129 = load i8, ptr %128, align 1
  store i8 %129, ptr %29, align 1
  br label %130

130:                                              ; preds = %125, %118
  %131 = load i8, ptr %29, align 1
  %132 = zext i8 %131 to i16
  %133 = load ptr, ptr %20, align 8
  store i16 %132, ptr %133, align 2
  %134 = load ptr, ptr %19, align 8
  store i16 8, ptr %134, align 2
  br label %135

135:                                              ; preds = %130, %91
  %136 = load i16, ptr %27, align 2
  %137 = zext i16 %136 to i32
  %138 = load ptr, ptr %19, align 8
  %139 = load i16, ptr %138, align 2
  %140 = zext i16 %139 to i32
  %141 = icmp slt i32 %137, %140
  br i1 %141, label %142, label %145

142:                                              ; preds = %135
  %143 = load i16, ptr %27, align 2
  %144 = zext i16 %143 to i32
  br label %149

145:                                              ; preds = %135
  %146 = load ptr, ptr %19, align 8
  %147 = load i16, ptr %146, align 2
  %148 = zext i16 %147 to i32
  br label %149

149:                                              ; preds = %145, %142
  %150 = phi i32 [ %144, %142 ], [ %148, %145 ]
  store i32 %150, ptr %33, align 4
  %151 = load i32, ptr %33, align 4
  %152 = load i16, ptr %27, align 2
  %153 = zext i16 %152 to i32
  %154 = sub i32 %153, %151
  %155 = trunc i32 %154 to i16
  store i16 %155, ptr %27, align 2
  %156 = load i32, ptr %33, align 4
  %157 = load ptr, ptr %20, align 8
  %158 = load i16, ptr %157, align 2
  %159 = zext i16 %158 to i32
  %160 = shl i32 %159, %156
  %161 = trunc i32 %160 to i16
  store i16 %161, ptr %157, align 2
  %162 = load i16, ptr %28, align 2
  %163 = zext i16 %162 to i32
  %164 = load i32, ptr %33, align 4
  %165 = shl i32 %163, %164
  %166 = load ptr, ptr %20, align 8
  %167 = load i16, ptr %166, align 2
  %168 = zext i16 %167 to i32
  %169 = ashr i32 %168, 8
  %170 = and i32 %169, 255
  %171 = or i32 %165, %170
  %172 = trunc i32 %171 to i16
  store i16 %172, ptr %28, align 2
  %173 = load i32, ptr %33, align 4
  %174 = load ptr, ptr %19, align 8
  %175 = load i16, ptr %174, align 2
  %176 = zext i16 %175 to i32
  %177 = sub i32 %176, %173
  %178 = trunc i32 %177 to i16
  store i16 %178, ptr %174, align 2
  %179 = load ptr, ptr %20, align 8
  %180 = load i16, ptr %179, align 2
  %181 = zext i16 %180 to i32
  %182 = and i32 %181, 255
  %183 = trunc i32 %182 to i16
  store i16 %183, ptr %179, align 2
  br label %87, !llvm.loop !37

184:                                              ; preds = %87
  %185 = load i8, ptr %16, align 1
  %186 = zext i8 %185 to i32
  %187 = icmp ne i32 %186, 0
  br i1 %187, label %188, label %219

188:                                              ; preds = %184
  %189 = load i16, ptr %22, align 2
  %190 = zext i16 %189 to i32
  %191 = icmp sle i32 %190, 16
  br i1 %191, label %192, label %219

192:                                              ; preds = %188
  call void @llvm.lifetime.start.p0(i64 2, ptr %35) #10
  %193 = load i16, ptr %28, align 2
  %194 = zext i16 %193 to i32
  %195 = ashr i32 %194, 8
  %196 = and i32 %195, 255
  %197 = sext i32 %196 to i64
  %198 = getelementptr [256 x i8], ptr @reverse, i64 0, i64 %197
  %199 = load i8, ptr %198, align 1
  %200 = zext i8 %199 to i16
  store i16 %200, ptr %35, align 2
  call void @llvm.lifetime.start.p0(i64 2, ptr %36) #10
  %201 = load i16, ptr %28, align 2
  %202 = zext i16 %201 to i32
  %203 = and i32 %202, 255
  %204 = sext i32 %203 to i64
  %205 = getelementptr [256 x i8], ptr @reverse, i64 0, i64 %204
  %206 = load i8, ptr %205, align 1
  %207 = zext i8 %206 to i16
  store i16 %207, ptr %36, align 2
  %208 = load i16, ptr %36, align 2
  %209 = zext i16 %208 to i32
  %210 = shl i32 %209, 8
  %211 = load i16, ptr %35, align 2
  %212 = zext i16 %211 to i32
  %213 = or i32 %210, %212
  %214 = load i16, ptr %22, align 2
  %215 = zext i16 %214 to i32
  %216 = sub i32 16, %215
  %217 = ashr i32 %213, %216
  %218 = trunc i32 %217 to i16
  store i16 %218, ptr %28, align 2
  call void @llvm.lifetime.end.p0(i64 2, ptr %36) #10
  call void @llvm.lifetime.end.p0(i64 2, ptr %35) #10
  br label %219

219:                                              ; preds = %192, %188, %184
  %220 = load i16, ptr %28, align 2
  %221 = zext i16 %220 to i32
  store i32 %221, ptr %13, align 4
  store i32 1, ptr %34, align 4
  br label %222

222:                                              ; preds = %219, %84
  call void @llvm.lifetime.end.p0(i64 4, ptr %33) #10
  call void @llvm.lifetime.end.p0(i64 4, ptr %32) #10
  call void @llvm.lifetime.end.p0(i64 4, ptr %31) #10
  call void @llvm.lifetime.end.p0(i64 4, ptr %30) #10
  call void @llvm.lifetime.end.p0(i64 1, ptr %29) #10
  call void @llvm.lifetime.end.p0(i64 2, ptr %28) #10
  call void @llvm.lifetime.end.p0(i64 2, ptr %27) #10
  call void @llvm.lifetime.end.p0(i64 2, ptr %26) #10
  %223 = load i32, ptr %13, align 4
  ret i32 %223
}