; Function Attrs: null_pointer_is_valid sspstrong uwtable
define internal fastcc range(i32 0, 65536) i32 @decomp_dispatch_get_bits(ptr noundef %0, ptr noundef %1, i8 noundef zeroext range(i8 0, 2) %2, i8 %.68.val, i8 %.69.val, ptr noundef captures(none) %3, ptr noundef captures(none) %4, ptr noundef captures(none) %5, ptr noundef captures(none) %6, i16 noundef zeroext %7, ptr noundef writeonly captures(none) initializes((0, 2)) %8, i32 noundef %9, i1 noundef zeroext %10) unnamed_addr #0 {
  %.69.val.fr = freeze i8 %.69.val
  %12 = load i32, ptr %6, align 4
  %13 = sub i32 %9, %12
  %14 = load i16, ptr %3, align 2
  %15 = and i16 %14, 1
  store i16 0, ptr %8, align 2
  %16 = and i8 %.69.val.fr, 1
  %.not = icmp eq i8 %16, 0
  %17 = zext nneg i8 %16 to i16
  %.not67 = icmp eq i16 %15, %17
  br i1 %.not67, label %23, label %18

18:                                               ; preds = %11
  %19 = zext i8 %.69.val.fr to i16
  %20 = zext i8 %.68.val to i16
  %21 = shl nuw i16 %20, 8
  %22 = or disjoint i16 %21, %19
  store i16 0, ptr %4, align 2
  store i16 %22, ptr %3, align 2
  br label %23

23:                                               ; preds = %18, %11
  %24 = load i16, ptr %4, align 2
  %25 = zext i16 %24 to i32
  %26 = shl i32 %13, 3
  %27 = add i32 %26, %25
  %28 = zext i16 %7 to i32
  %29 = icmp slt i32 %27, %28
  br i1 %29, label %116, label %.preheader

.preheader:                                       ; preds = %23
  %.not681 = icmp eq i16 %7, 0
  br i1 %.not681, label %._crit_edge, label %.lr.ph

.lr.ph:                                           ; preds = %.preheader
  br i1 %10, label %.lr.ph.split.us, label %.lr.ph.split

.lr.ph.split.us:                                  ; preds = %.lr.ph
  br i1 %.not, label %.lr.ph.split.us.split.us, label %.lr.ph.split.us.split

.lr.ph.split.us.split.us:                         ; preds = %.lr.ph.split.us, %42
  %.0613.us.us = phi i16 [ %45, %42 ], [ %7, %.lr.ph.split.us ]
  %.0622.us.us = phi i32 [ %54, %42 ], [ 0, %.lr.ph.split.us ]
  %30 = load i16, ptr %4, align 2
  %31 = icmp eq i16 %30, 0
  br i1 %31, label %32, label %42

32:                                               ; preds = %.lr.ph.split.us.split.us
  %33 = load i32, ptr %6, align 4
  %34 = tail call zeroext i8 @tvb_get_uint8(ptr noundef %0, i32 noundef %33)
  %35 = load i32, ptr @hf_sigcomp_getting_value, align 4
  %36 = load i32, ptr %6, align 4
  %37 = zext i8 %34 to i32
  %38 = tail call ptr (ptr, i32, ptr, i32, i32, i32, ptr, ...) @proto_tree_add_uint_format(ptr noundef %1, i32 noundef %35, ptr noundef %0, i32 noundef %36, i32 noundef 1, i32 noundef %37, ptr noundef nonnull @.str.539, i32 noundef %37, i32 noundef %37, i32 noundef %36)
  %39 = load i32, ptr %6, align 4
  %40 = add i32 %39, 1
  store i32 %40, ptr %6, align 4
  %41 = zext i8 %34 to i16
  store i16 %41, ptr %5, align 2
  store i16 8, ptr %4, align 2
  br label %42

42:                                               ; preds = %32, %.lr.ph.split.us.split.us
  %43 = phi i16 [ 8, %32 ], [ %30, %.lr.ph.split.us.split.us ]
  %.061..us.us = tail call i16 @llvm.umin.i16(i16 %.0613.us.us, i16 %43)
  %44 = zext i16 %.061..us.us to i32
  %45 = sub i16 %.0613.us.us, %.061..us.us
  %46 = load i16, ptr %5, align 2
  %47 = zext i16 %46 to i32
  %48 = shl i32 %47, %44
  %49 = trunc i32 %48 to i16
  store i16 %49, ptr %5, align 2
  %50 = and i32 %.0622.us.us, 65535
  %51 = shl i32 %50, %44
  %52 = lshr i32 %48, 8
  %53 = and i32 %52, 255
  %54 = or i32 %53, %51
  %55 = load i16, ptr %4, align 2
  %56 = sub i16 %55, %.061..us.us
  store i16 %56, ptr %4, align 2
  %57 = load i16, ptr %5, align 2
  %58 = and i16 %57, 255
  store i16 %58, ptr %5, align 2
  %.not68.us.us = icmp eq i16 %45, 0
  br i1 %.not68.us.us, label %._crit_edge.loopexit, label %.lr.ph.split.us.split.us, !llvm.loop !34

.lr.ph.split.us.split:                            ; preds = %.lr.ph.split.us, %74
  %.0613.us = phi i16 [ %77, %74 ], [ %7, %.lr.ph.split.us ]
  %.0622.us = phi i32 [ %86, %74 ], [ 0, %.lr.ph.split.us ]
  %59 = load i16, ptr %4, align 2
  %60 = icmp eq i16 %59, 0
  br i1 %60, label %61, label %74

61:                                               ; preds = %.lr.ph.split.us.split
  %62 = load i32, ptr %6, align 4
  %63 = tail call zeroext i8 @tvb_get_uint8(ptr noundef %0, i32 noundef %62)
  %64 = load i32, ptr @hf_sigcomp_getting_value, align 4
  %65 = load i32, ptr %6, align 4
  %66 = zext i8 %63 to i32
  %67 = tail call ptr (ptr, i32, ptr, i32, i32, i32, ptr, ...) @proto_tree_add_uint_format(ptr noundef %1, i32 noundef %64, ptr noundef %0, i32 noundef %65, i32 noundef 1, i32 noundef %66, ptr noundef nonnull @.str.539, i32 noundef %66, i32 noundef %66, i32 noundef %65)
  %68 = load i32, ptr %6, align 4
  %69 = add i32 %68, 1
  store i32 %69, ptr %6, align 4
  %70 = zext i8 %63 to i64
  %71 = getelementptr [256 x i8], ptr @reverse, i64 0, i64 %70
  %72 = load i8, ptr %71, align 1
  %73 = zext i8 %72 to i16
  store i16 %73, ptr %5, align 2
  store i16 8, ptr %4, align 2
  br label %74

74:                                               ; preds = %61, %.lr.ph.split.us.split
  %75 = phi i16 [ 8, %61 ], [ %59, %.lr.ph.split.us.split ]
  %.061..us = tail call i16 @llvm.umin.i16(i16 %.0613.us, i16 %75)
  %76 = zext i16 %.061..us to i32
  %77 = sub i16 %.0613.us, %.061..us
  %78 = load i16, ptr %5, align 2
  %79 = zext i16 %78 to i32
  %80 = shl i32 %79, %76
  %81 = trunc i32 %80 to i16
  store i16 %81, ptr %5, align 2
  %82 = and i32 %.0622.us, 65535
  %83 = shl i32 %82, %76
  %84 = lshr i32 %80, 8
  %85 = and i32 %84, 255
  %86 = or i32 %85, %83
  %87 = load i16, ptr %4, align 2
  %88 = sub i16 %87, %.061..us
  store i16 %88, ptr %4, align 2
  %89 = load i16, ptr %5, align 2
  %90 = and i16 %89, 255
  store i16 %90, ptr %5, align 2
  %.not68.us = icmp eq i16 %77, 0
  br i1 %.not68.us, label %._crit_edge.loopexit13, label %.lr.ph.split.us.split, !llvm.loop !34

.lr.ph.split:                                     ; preds = %.lr.ph
  br i1 %.not, label %.lr.ph.split.split.us, label %.lr.ph.split.split

.lr.ph.split.split.us:                            ; preds = %.lr.ph.split, %99
  %.0613.us4 = phi i16 [ %102, %99 ], [ %7, %.lr.ph.split ]
  %.0622.us5 = phi i32 [ %111, %99 ], [ 0, %.lr.ph.split ]
  %91 = load i16, ptr %4, align 2
  %92 = icmp eq i16 %91, 0
  br i1 %92, label %93, label %99

93:                                               ; preds = %.lr.ph.split.split.us
  %94 = load i32, ptr %6, align 4
  %95 = tail call zeroext i8 @tvb_get_uint8(ptr noundef %0, i32 noundef %94)
  %96 = load i32, ptr %6, align 4
  %97 = add i32 %96, 1
  store i32 %97, ptr %6, align 4
  %98 = zext i8 %95 to i16
  store i16 %98, ptr %5, align 2
  store i16 8, ptr %4, align 2
  br label %99

99:                                               ; preds = %93, %.lr.ph.split.split.us
  %100 = phi i16 [ 8, %93 ], [ %91, %.lr.ph.split.split.us ]
  %.061..us7 = tail call i16 @llvm.umin.i16(i16 %.0613.us4, i16 %100)
  %101 = zext i16 %.061..us7 to i32
  %102 = sub i16 %.0613.us4, %.061..us7
  %103 = load i16, ptr %5, align 2
  %104 = zext i16 %103 to i32
  %105 = shl i32 %104, %101
  %106 = trunc i32 %105 to i16
  store i16 %106, ptr %5, align 2
  %107 = and i32 %.0622.us5, 65535
  %108 = shl i32 %107, %101
  %109 = lshr i32 %105, 8
  %110 = and i32 %109, 255
  %111 = or i32 %110, %108
  %112 = load i16, ptr %4, align 2
  %113 = sub i16 %112, %.061..us7
  store i16 %113, ptr %4, align 2
  %114 = load i16, ptr %5, align 2
  %115 = and i16 %114, 255
  store i16 %115, ptr %5, align 2
  %.not68.us8 = icmp eq i16 %102, 0
  br i1 %.not68.us8, label %._crit_edge.loopexit14, label %.lr.ph.split.split.us, !llvm.loop !34

116:                                              ; preds = %23
  store i16 11, ptr %8, align 2
  br label %170

.lr.ph.split.split:                               ; preds = %.lr.ph.split, %128
  %.0613 = phi i16 [ %131, %128 ], [ %7, %.lr.ph.split ]
  %.0622 = phi i32 [ %140, %128 ], [ 0, %.lr.ph.split ]
  %117 = load i16, ptr %4, align 2
  %118 = icmp eq i16 %117, 0
  br i1 %118, label %119, label %128

119:                                              ; preds = %.lr.ph.split.split
  %120 = load i32, ptr %6, align 4
  %121 = tail call zeroext i8 @tvb_get_uint8(ptr noundef %0, i32 noundef %120)
  %122 = load i32, ptr %6, align 4
  %123 = add i32 %122, 1
  store i32 %123, ptr %6, align 4
  %124 = zext i8 %121 to i64
  %125 = getelementptr [256 x i8], ptr @reverse, i64 0, i64 %124
  %126 = load i8, ptr %125, align 1
  %127 = zext i8 %126 to i16
  store i16 %127, ptr %5, align 2
  store i16 8, ptr %4, align 2
  br label %128

128:                                              ; preds = %119, %.lr.ph.split.split
  %129 = phi i16 [ 8, %119 ], [ %117, %.lr.ph.split.split ]
  %.061. = tail call i16 @llvm.umin.i16(i16 %.0613, i16 %129)
  %130 = zext i16 %.061. to i32
  %131 = sub i16 %.0613, %.061.
  %132 = load i16, ptr %5, align 2
  %133 = zext i16 %132 to i32
  %134 = shl i32 %133, %130
  %135 = trunc i32 %134 to i16
  store i16 %135, ptr %5, align 2
  %136 = and i32 %.0622, 65535
  %137 = shl i32 %136, %130
  %138 = lshr i32 %134, 8
  %139 = and i32 %138, 255
  %140 = or i32 %139, %137
  %141 = load i16, ptr %4, align 2
  %142 = sub i16 %141, %.061.
  store i16 %142, ptr %4, align 2
  %143 = load i16, ptr %5, align 2
  %144 = and i16 %143, 255
  store i16 %144, ptr %5, align 2
  %.not68 = icmp eq i16 %131, 0
  br i1 %.not68, label %._crit_edge.loopexit15, label %.lr.ph.split.split, !llvm.loop !34

._crit_edge.loopexit:                             ; preds = %42
  %145 = trunc i32 %54 to i16
  br label %._crit_edge

._crit_edge.loopexit13:                           ; preds = %74
  %146 = trunc i32 %86 to i16
  br label %._crit_edge

._crit_edge.loopexit14:                           ; preds = %99
  %147 = trunc i32 %111 to i16
  br label %._crit_edge

._crit_edge.loopexit15:                           ; preds = %128
  %148 = trunc i32 %140 to i16
  br label %._crit_edge

._crit_edge:                                      ; preds = %._crit_edge.loopexit15, %._crit_edge.loopexit14, %._crit_edge.loopexit13, %._crit_edge.loopexit, %.preheader
  %.062.lcssa = phi i16 [ 0, %.preheader ], [ %145, %._crit_edge.loopexit ], [ %146, %._crit_edge.loopexit13 ], [ %147, %._crit_edge.loopexit14 ], [ %148, %._crit_edge.loopexit15 ]
  %149 = icmp ne i8 %2, 0
  %150 = icmp ult i16 %7, 17
  %or.cond = and i1 %149, %150
  br i1 %or.cond, label %151, label %168

151:                                              ; preds = %._crit_edge
  %152 = zext i16 %.062.lcssa to i32
  %153 = lshr i32 %152, 8
  %154 = zext nneg i32 %153 to i64
  %155 = getelementptr [256 x i8], ptr @reverse, i64 0, i64 %154
  %156 = load i8, ptr %155, align 1
  %157 = and i32 %152, 255
  %158 = zext nneg i32 %157 to i64
  %159 = getelementptr [256 x i8], ptr @reverse, i64 0, i64 %158
  %160 = load i8, ptr %159, align 1
  %161 = zext i8 %160 to i32
  %162 = shl nuw nsw i32 %161, 8
  %163 = zext i8 %156 to i32
  %164 = or disjoint i32 %162, %163
  %165 = sub nuw nsw i32 16, %28
  %166 = lshr i32 %164, %165
  %167 = trunc nuw i32 %166 to i16
  br label %168

168:                                              ; preds = %151, %._crit_edge
  %.1 = phi i16 [ %167, %151 ], [ %.062.lcssa, %._crit_edge ]
  %169 = zext i16 %.1 to i32
  br label %170

170:                                              ; preds = %168, %116
  %.0 = phi i32 [ 64429, %116 ], [ %169, %168 ]
  ret i32 %.0
}